ccopy_reg
_reconstructor
p0
(ctextblob.classifiers
NaiveBayesClassifier
p1
c__builtin__
object
p2
Ntp3
Rp4
(dp5
S'format_kwargs'
p6
(dp7
sS'_word_set'
p8
c__builtin__
set
p9
((lp10
tp11
Rp12
sS'train_features'
p13
(lp14
sS'train_set'
p15
(lp16
sS'feature_extractor'
p17
ctextblob.classifiers
basic_extractor
p18
sb.